; Function Attrs: nounwind uwtable
define dso_local ptr @archive_entry_pathname_w(ptr noundef %0) local_unnamed_addr #0 {
  %2 = alloca ptr, align 8
  call void @llvm.lifetime.start.p0(i64 8, ptr nonnull %2) #21
  %3 = load ptr, ptr %0, align 8, !tbaa !25
  %4 = getelementptr inbounds nuw i8, ptr %0, i64 528
  %5 = call i32 @archive_mstring_get_wcs(ptr noundef %3, ptr noundef nonnull %4, ptr noundef nonnull %2) #21
  %6 = icmp eq i32 %5, 0
  br i1 %6, label %7, label %9

7:                                                ; preds = %1
  %8 = load ptr, ptr %2, align 8, !tbaa !67
  br label %14

9:                                                ; preds = %1
  %10 = tail call ptr @__errno_location() #25
  %11 = load i32, ptr %10, align 4, !tbaa !28
  %12 = icmp eq i32 %11, 12
  br i1 %12, label %13, label %14

13:                                               ; preds = %9
  call void @__archive_errx(i32 noundef 1, ptr noundef nonnull @.str) #23
  unreachable

14:                                               ; preds = %9, %7
  %.0 = phi ptr [ %8, %7 ], [ null, %9 ]
  call void @llvm.lifetime.end.p0(i64 8, ptr nonnull %2) #21
  ret ptr %.0
}